target datalayout = "e-m:e-p270:32:32-p271:32:32-p272:64:64-i64:64-i128:128-f80:128-n8:16:32:64-S128"
target triple = "x86_64-pc-linux-gnu"

%struct.hb_font_funcs_t = type { %struct.hb_object_header_t, ptr, ptr, %"union.hb_font_funcs_t::get_t" }
%struct.hb_object_header_t = type { %struct.hb_reference_count_t, %struct.hb_atomic_int_t, %struct.hb_atomic_ptr_t }
%struct.hb_reference_count_t = type { %struct.hb_atomic_int_t }
%struct.hb_atomic_int_t = type { i32 }
%struct.hb_atomic_ptr_t = type { ptr }
%"union.hb_font_funcs_t::get_t" = type { %"struct.hb_font_funcs_t::get_t::get_funcs_t" }
%"struct.hb_font_funcs_t::get_t::get_funcs_t" = type { ptr, ptr, ptr, ptr, ptr, ptr, ptr, ptr, ptr, ptr, ptr, ptr, ptr, ptr, ptr, ptr, ptr, ptr, ptr }
%struct.hb_atomic_ptr_t.1 = type { ptr }
%struct.hb_atomic_ptr_t.5 = type { ptr }
%struct.hb_font_t = type { %struct.hb_object_header_t, i32, i32, ptr, ptr, i32, i32, float, float, i8, i32, i32, float, float, float, float, i64, i64, i32, i32, float, i32, i32, ptr, ptr, ptr, ptr, ptr, %struct.hb_shaper_object_dataset_t }
%struct.hb_shaper_object_dataset_t = type { ptr, %struct.hb_shaper_lazy_loader_t, %struct.hb_shaper_lazy_loader_t.2 }
%struct.hb_shaper_lazy_loader_t = type { %struct.hb_lazy_loader_t }
%struct.hb_lazy_loader_t = type { %struct.hb_atomic_ptr_t.1 }
%struct.hb_shaper_lazy_loader_t.2 = type { %struct.hb_lazy_loader_t.3 }
%struct.hb_lazy_loader_t.3 = type { %struct.hb_atomic_ptr_t.5 }
%struct.anon.0 = type { ptr, ptr, ptr, ptr, ptr, ptr, ptr, ptr, ptr, ptr, ptr, ptr, ptr, ptr, ptr, ptr, ptr, ptr, ptr }

; Function Attrs: mustprogress nounwind uwtable
define internal noundef ptr @_ZL9hb_memsetPvij(ptr noundef %0, i32 noundef %1, i32 noundef %2) #1 {
  %4 = alloca ptr, align 8
  %5 = alloca ptr, align 8
  %6 = alloca i32, align 4
  %7 = alloca i32, align 4
  store ptr %0, ptr %5, align 8
  store i32 %1, ptr %6, align 4
  store i32 %2, ptr %7, align 4
  %8 = load i32, ptr %7, align 4
  %9 = icmp ne i32 %8, 0
  br i1 %9, label %12, label %10

10:                                               ; preds = %3
  %11 = load ptr, ptr %5, align 8
  store ptr %11, ptr %4, align 8
  br label %18

12:                                               ; preds = %3
  %13 = load ptr, ptr %5, align 8
  %14 = load i32, ptr %6, align 4
  %15 = trunc i32 %14 to i8
  %16 = load i32, ptr %7, align 4
  %17 = zext i32 %16 to i64
  call void @llvm.memset.p0.i64(ptr align 1 %13, i8 %15, i64 %17, i1 false)
  store ptr %13, ptr %4, align 8
  br label %18

18:                                               ; preds = %12, %10
  %19 = load ptr, ptr %4, align 8
  ret ptr %19
}

; Function Attrs: mustprogress uwtable
define linkonce_odr hidden noundef i32 @_ZN9hb_font_t18get_font_v_extentsEP17hb_font_extents_t(ptr noundef nonnull align 8 dereferenceable(192) %0, ptr noundef %1) #0 comdat align 2 {
  %3 = alloca ptr, align 8
  %4 = alloca ptr, align 8
  store ptr %0, ptr %3, align 8
  store ptr %1, ptr %4, align 8
  %5 = load ptr, ptr %3, align 8
  %6 = load ptr, ptr %4, align 8
  %7 = call noundef ptr @_ZL9hb_memsetPvij(ptr noundef %6, i32 noundef 0, i32 noundef 48)
  %8 = getelementptr inbounds %struct.hb_font_t, ptr %5, i32 0, i32 25
  %9 = load ptr, ptr %8, align 8
  %10 = getelementptr inbounds %struct.hb_font_funcs_t, ptr %9, i32 0, i32 3
  %11 = getelementptr inbounds %"struct.hb_font_funcs_t::get_t::get_funcs_t", ptr %10, i32 0, i32 1
  %12 = load ptr, ptr %11, align 8
  %13 = getelementptr inbounds %struct.hb_font_t, ptr %5, i32 0, i32 26
  %14 = load ptr, ptr %13, align 8
  %15 = load ptr, ptr %4, align 8
  %16 = getelementptr inbounds %struct.hb_font_t, ptr %5, i32 0, i32 25
  %17 = load ptr, ptr %16, align 8
  %18 = getelementptr inbounds %struct.hb_font_funcs_t, ptr %17, i32 0, i32 1
  %19 = load ptr, ptr %18, align 8
  %20 = icmp ne ptr %19, null
  br i1 %20, label %22, label %21

21:                                               ; preds = %2
  br label %29

22:                                               ; preds = %2
  %23 = getelementptr inbounds %struct.hb_font_t, ptr %5, i32 0, i32 25
  %24 = load ptr, ptr %23, align 8
  %25 = getelementptr inbounds %struct.hb_font_funcs_t, ptr %24, i32 0, i32 1
  %26 = load ptr, ptr %25, align 8
  %27 = getelementptr inbounds %struct.anon.0, ptr %26, i32 0, i32 1
  %28 = load ptr, ptr %27, align 8
  br label %29

29:                                               ; preds = %22, %21
  %30 = phi ptr [ null, %21 ], [ %28, %22 ]
  %31 = call noundef i32 %12(ptr noundef %5, ptr noundef %14, ptr noundef %15, ptr noundef %30)
  ret i32 %31
}

; Function Attrs: mustprogress uwtable
define hidden i32 @hb_font_get_v_extents(ptr noundef %0, ptr noundef %1) #0 {
  %3 = alloca ptr, align 8
  %4 = alloca ptr, align 8
  store ptr %0, ptr %3, align 8
  store ptr %1, ptr %4, align 8
  %5 = load ptr, ptr %3, align 8
  %6 = load ptr, ptr %4, align 8
  %7 = call noundef i32 @_ZN9hb_font_t18get_font_v_extentsEP17hb_font_extents_t(ptr noundef nonnull align 8 dereferenceable(192) %5, ptr noundef %6)
  ret i32 %7
}