; Function Attrs: mustprogress uwtable
define hidden noundef i32 @hb_font_get_v_extents(ptr noundef %0, ptr noundef %1) local_unnamed_addr #1 {
  tail call void @llvm.memset.p0.i64(ptr noundef nonnull align 1 dereferenceable(48) %1, i8 0, i64 48, i1 false)
  %3 = getelementptr inbounds i8, ptr %0, i64 144
  %4 = load ptr, ptr %3, align 8
  %5 = getelementptr inbounds i8, ptr %4, i64 40
  %6 = load ptr, ptr %5, align 8
  %7 = getelementptr inbounds i8, ptr %0, i64 152
  %8 = load ptr, ptr %7, align 8
  %9 = getelementptr inbounds i8, ptr %4, i64 16
  %10 = load ptr, ptr %9, align 8
  %.not.i = icmp eq ptr %10, null
  br i1 %.not.i, label %_ZN9hb_font_t18get_font_v_extentsEP17hb_font_extents_t.exit, label %11

11:                                               ; preds = %2
  %12 = getelementptr inbounds i8, ptr %10, i64 8
  %13 = load ptr, ptr %12, align 8
  br label %_ZN9hb_font_t18get_font_v_extentsEP17hb_font_extents_t.exit

_ZN9hb_font_t18get_font_v_extentsEP17hb_font_extents_t.exit: ; preds = %2, %11
  %14 = phi ptr [ %13, %11 ], [ null, %2 ]
  %15 = tail call noundef i32 %6(ptr noundef nonnull %0, ptr noundef %8, ptr noundef nonnull %1, ptr noundef %14)
  ret i32 %15
}